target datalayout = "e-m:e-p270:32:32-p271:32:32-p272:64:64-i64:64-i128:128-f80:128-n8:16:32:64-S128"
target triple = "x86_64-pc-linux-gnu"

%struct._zval_struct = type { %union._zend_value, %union.anon, %union.anon.2 }
%union._zend_value = type { i64 }
%union.anon = type { i32 }
%union.anon.2 = type { i32 }
%union._zend_function = type { %struct._zend_op_array }
%struct._zend_op_array = type { i8, [3 x i8], i32, ptr, ptr, ptr, i32, i32, ptr, ptr, ptr, ptr, i32, ptr, i32, i32, i32, ptr, ptr, ptr, ptr, ptr, i32, i32, ptr, ptr, ptr, i32, i32, i32, i32, ptr, ptr, [6 x ptr] }
%struct._zend_refcounted_h = type { i32, %union.anon.4 }
%union.anon.4 = type { i32 }
%struct._zend_closure = type { %struct._zend_object, %union._zend_function, %struct._zval_struct, ptr, ptr }
%struct._zend_object = type { %struct._zend_refcounted_h, i32, i32, ptr, ptr, ptr, [1 x %struct._zval_struct] }
%struct.anon.0 = type { i8, i8, %union.anon.1 }
%union.anon.1 = type { i16 }

; Function Attrs: alwaysinline nounwind uwtable
define internal zeroext i8 @zval_get_type(ptr noundef %0) #6 {
  %2 = alloca ptr, align 8
  store ptr %0, ptr %2, align 8, !tbaa !9
  %3 = load ptr, ptr %2, align 8, !tbaa !9
  %4 = getelementptr inbounds nuw %struct._zval_struct, ptr %3, i32 0, i32 1
  %5 = getelementptr inbounds nuw %struct.anon.0, ptr %4, i32 0, i32 0
  %6 = load i8, ptr %5, align 8, !tbaa !20
  ret i8 %6
}

; Function Attrs: nounwind uwtable
define internal i32 @zend_closure_get_closure(ptr noundef %0, ptr noundef %1, ptr noundef %2, ptr noundef %3, i1 noundef zeroext %4) #0 {
  %6 = alloca ptr, align 8
  %7 = alloca ptr, align 8
  %8 = alloca ptr, align 8
  %9 = alloca ptr, align 8
  %10 = alloca i8, align 1
  %11 = alloca ptr, align 8
  store ptr %0, ptr %6, align 8, !tbaa !33
  store ptr %1, ptr %7, align 8, !tbaa !34
  store ptr %2, ptr %8, align 8, !tbaa !36
  store ptr %3, ptr %9, align 8, !tbaa !38
  %12 = zext i1 %4 to i8
  store i8 %12, ptr %10, align 1, !tbaa !23
  call void @llvm.lifetime.start.p0(i64 8, ptr %11) #11
  %13 = load ptr, ptr %6, align 8, !tbaa !33
  store ptr %13, ptr %11, align 8, !tbaa !40
  %14 = load ptr, ptr %11, align 8, !tbaa !40
  %15 = getelementptr inbounds nuw %struct._zend_closure, ptr %14, i32 0, i32 1
  %16 = load ptr, ptr %8, align 8, !tbaa !36
  store ptr %15, ptr %16, align 8, !tbaa !17
  %17 = load ptr, ptr %11, align 8, !tbaa !40
  %18 = getelementptr inbounds nuw %struct._zend_closure, ptr %17, i32 0, i32 3
  %19 = load ptr, ptr %18, align 8, !tbaa !42
  %20 = load ptr, ptr %7, align 8, !tbaa !34
  store ptr %19, ptr %20, align 8, !tbaa !47
  %21 = load ptr, ptr %11, align 8, !tbaa !40
  %22 = getelementptr inbounds nuw %struct._zend_closure, ptr %21, i32 0, i32 2
  %23 = call zeroext i8 @zval_get_type(ptr noundef %22)
  %24 = zext i8 %23 to i32
  %25 = icmp ne i32 %24, 0
  br i1 %25, label %26, label %32

26:                                               ; preds = %5
  %27 = load ptr, ptr %11, align 8, !tbaa !40
  %28 = getelementptr inbounds nuw %struct._zend_closure, ptr %27, i32 0, i32 2
  %29 = getelementptr inbounds nuw %struct._zval_struct, ptr %28, i32 0, i32 0
  %30 = load ptr, ptr %29, align 8, !tbaa !20
  %31 = load ptr, ptr %9, align 8, !tbaa !38
  store ptr %30, ptr %31, align 8, !tbaa !33
  br label %34

32:                                               ; preds = %5
  %33 = load ptr, ptr %9, align 8, !tbaa !38
  store ptr null, ptr %33, align 8, !tbaa !33
  br label %34

34:                                               ; preds = %32, %26
  call void @llvm.lifetime.end.p0(i64 8, ptr %11) #11
  ret i32 0
}