; Function Attrs: mustprogress nofree norecurse nosync nounwind willreturn memory(argmem: readwrite) uwtable
define internal noundef i32 @zend_closure_get_closure(ptr noundef %0, ptr noundef writeonly captures(none) initializes((0, 8)) %1, ptr noundef writeonly captures(none) initializes((0, 8)) %2, ptr noundef writeonly captures(none) initializes((0, 8)) %3, i1 zeroext %4) #5 {
  %6 = getelementptr inbounds nuw i8, ptr %0, i64 56
  store ptr %6, ptr %2, align 8, !tbaa !27
  %7 = getelementptr inbounds nuw i8, ptr %0, i64 328
  %8 = load ptr, ptr %7, align 8, !tbaa !18
  store ptr %8, ptr %1, align 8, !tbaa !28
  %9 = getelementptr inbounds nuw i8, ptr %0, i64 320
  %10 = load i8, ptr %9, align 8, !tbaa !15
  %.not = icmp eq i8 %10, 0
  br i1 %.not, label %14, label %11

11:                                               ; preds = %5
  %12 = getelementptr inbounds nuw i8, ptr %0, i64 312
  %13 = load ptr, ptr %12, align 8, !tbaa !15
  br label %14

14:                                               ; preds = %5, %11
  %storemerge = phi ptr [ %13, %11 ], [ null, %5 ]
  store ptr %storemerge, ptr %3, align 8, !tbaa !29
  ret i32 0
}